; Function Attrs: mustprogress nofree norecurse nosync nounwind willreturn memory(none) uwtable
define hidden noundef i32 @_ZN2cv3dnn12cpu_baseline17fastGemmPackBSizeEii(i32 noundef %0, i32 noundef %1) local_unnamed_addr #3 {
  %3 = tail call i32 @llvm.smin.i32(i32 %0, i32 240)
  %4 = add nsw i32 %3, 11
  %5 = srem i32 %4, 12
  %6 = sub nsw i32 %4, %5
  %.fr = freeze i32 %6
  %7 = add i32 %0, -1
  %8 = add i32 %7, %.fr
  %9 = srem i32 %8, %.fr
  %10 = sub nsw i32 %8, %9
  %11 = mul nsw i32 %10, %1
  ret i32 %11
}